target datalayout = "e-m:e-p270:32:32-p271:32:32-p272:64:64-i64:64-i128:128-f80:128-n8:16:32:64-S128"
target triple = "x86_64-pc-linux-gnu"

%struct.AVChannelLayout = type { i32, i32, %union.anon, ptr }
%union.anon = type { i64 }
%struct.AVFormatContext = type { ptr, ptr, ptr, ptr, ptr, i32, i32, ptr, i32, ptr, i32, ptr, ptr, i64, i64, i64, i32, i32, i32, i64, i64, ptr, i32, i32, ptr, i32, i32, i32, i32, ptr, i64, i32, i32, %struct.AVIOInterruptCB, i32, i32, i32, i32, i64, i32, i32, i32, i32, i32, i32, i32, i32, i32, i32, i32, i32, i64, i32, i32, i32, i32, i32, ptr, ptr, ptr, ptr, i32, ptr, ptr, ptr, ptr, i32, ptr, ptr, i64, ptr, ptr, ptr, i64 }
%struct.AVIOInterruptCB = type { ptr, ptr }
%struct.AVStream = type { ptr, i32, i32, ptr, ptr, %struct.AVRational, i64, i64, i64, i32, i32, %struct.AVRational, ptr, %struct.AVRational, %struct.AVPacket, i32, %struct.AVRational, i32 }
%struct.AVPacket = type { ptr, i64, i64, ptr, i32, i32, i32, ptr, i32, i64, i64, ptr, ptr, %struct.AVRational }
%struct.AVRational = type { i32, i32 }
%struct.AVCodecParameters = type { i32, i32, i32, ptr, i32, ptr, i32, i32, i64, i32, i32, i32, i32, i32, i32, %struct.AVRational, %struct.AVRational, i32, i32, i32, i32, i32, i32, i32, %struct.AVChannelLayout, i32, i32, i32, i32, i32, i32 }

@mode20_header = internal constant [10 x i8] c"#!iLBC20\0A\00", align 1
@mode30_header = internal constant [10 x i8] c"#!iLBC30\0A\00", align 1
@.str.5 = private unnamed_addr constant [18 x i8] c"Unsupported mode\0A\00", align 1

; Function Attrs: nounwind uwtable
define internal i32 @ilbc_write_header(ptr noundef %0) #0 {
  %2 = alloca i32, align 4
  %3 = alloca ptr, align 8
  %4 = alloca ptr, align 8
  %5 = alloca ptr, align 8
  %6 = alloca i32, align 4
  store ptr %0, ptr %3, align 8, !tbaa !13
  call void @llvm.lifetime.start.p0(i64 8, ptr %4) #6
  %7 = load ptr, ptr %3, align 8, !tbaa !13
  %8 = getelementptr inbounds nuw %struct.AVFormatContext, ptr %7, i32 0, i32 4
  %9 = load ptr, ptr %8, align 8, !tbaa !15
  store ptr %9, ptr %4, align 8, !tbaa !30
  call void @llvm.lifetime.start.p0(i64 8, ptr %5) #6
  %10 = load ptr, ptr %3, align 8, !tbaa !13
  %11 = getelementptr inbounds nuw %struct.AVFormatContext, ptr %10, i32 0, i32 7
  %12 = load ptr, ptr %11, align 8, !tbaa !57
  %13 = getelementptr inbounds ptr, ptr %12, i64 0
  %14 = load ptr, ptr %13, align 8, !tbaa !32
  %15 = getelementptr inbounds nuw %struct.AVStream, ptr %14, i32 0, i32 3
  %16 = load ptr, ptr %15, align 8, !tbaa !34
  store ptr %16, ptr %5, align 8, !tbaa !58
  %17 = load ptr, ptr %5, align 8, !tbaa !58
  %18 = getelementptr inbounds nuw %struct.AVCodecParameters, ptr %17, i32 0, i32 26
  %19 = load i32, ptr %18, align 4, !tbaa !53
  %20 = icmp eq i32 %19, 50
  br i1 %20, label %21, label %23

21:                                               ; preds = %1
  %22 = load ptr, ptr %4, align 8, !tbaa !30
  call void @avio_write(ptr noundef %22, ptr noundef @mode30_header, i32 noundef 9)
  br label %33

23:                                               ; preds = %1
  %24 = load ptr, ptr %5, align 8, !tbaa !58
  %25 = getelementptr inbounds nuw %struct.AVCodecParameters, ptr %24, i32 0, i32 26
  %26 = load i32, ptr %25, align 4, !tbaa !53
  %27 = icmp eq i32 %26, 38
  br i1 %27, label %28, label %30

28:                                               ; preds = %23
  %29 = load ptr, ptr %4, align 8, !tbaa !30
  call void @avio_write(ptr noundef %29, ptr noundef @mode20_header, i32 noundef 9)
  br label %32

30:                                               ; preds = %23
  %31 = load ptr, ptr %3, align 8, !tbaa !13
  call void (ptr, i32, ptr, ...) @av_log(ptr noundef %31, i32 noundef 16, ptr noundef @.str.5)
  store i32 -22, ptr %2, align 4
  store i32 1, ptr %6, align 4
  br label %34

32:                                               ; preds = %28
  br label %33

33:                                               ; preds = %32, %21
  store i32 0, ptr %2, align 4
  store i32 1, ptr %6, align 4
  br label %34

34:                                               ; preds = %33, %30
  call void @llvm.lifetime.end.p0(i64 8, ptr %5) #6
  call void @llvm.lifetime.end.p0(i64 8, ptr %4) #6
  %35 = load i32, ptr %2, align 4
  ret i32 %35
}