; Function Attrs: nounwind uwtable
define internal range(i32 -22, 1) i32 @ilbc_write_header(ptr noundef %0) #1 {
  %2 = getelementptr inbounds nuw i8, ptr %0, i64 32
  %3 = load ptr, ptr %2, align 8, !tbaa !11
  %4 = getelementptr inbounds nuw i8, ptr %0, i64 48
  %5 = load ptr, ptr %4, align 8, !tbaa !44
  %6 = load ptr, ptr %5, align 8, !tbaa !45
  %7 = getelementptr inbounds nuw i8, ptr %6, i64 16
  %8 = load ptr, ptr %7, align 8, !tbaa !26
  %9 = getelementptr inbounds nuw i8, ptr %8, i64 156
  %10 = load i32, ptr %9, align 4, !tbaa !42
  switch i32 %10, label %13 [
    i32 50, label %11
    i32 38, label %12
  ]

11:                                               ; preds = %1
  tail call void @avio_write(ptr noundef %3, ptr noundef nonnull @mode30_header, i32 noundef 9) #5
  br label %14

12:                                               ; preds = %1
  tail call void @avio_write(ptr noundef %3, ptr noundef nonnull @mode20_header, i32 noundef 9) #5
  br label %14

13:                                               ; preds = %1
  tail call void (ptr, i32, ptr, ...) @av_log(ptr noundef nonnull %0, i32 noundef 16, ptr noundef nonnull @.str.5) #5
  br label %14

14:                                               ; preds = %11, %12, %13
  %.0 = phi i32 [ -22, %13 ], [ 0, %12 ], [ 0, %11 ]
  ret i32 %.0
}